target datalayout = "e-m:e-p270:32:32-p271:32:32-p272:64:64-i64:64-i128:128-f80:128-n8:16:32:64-S128"
target triple = "x86_64-pc-linux-gnu"

@__const.pbkdf1_test.passwd = private unnamed_addr constant [9 x i8] c"password\00", align 1
@__const.pbkdf1_test.salt = private unnamed_addr constant [8 x i8] c"xW\8EZ]c\CB\06", align 1
@__const.pbkdf1_test.verify = private unnamed_addr constant [16 x i8] c"\DC\19\84~\05\C6M/\AF\10\EB\FBJ=* ", align 16

; Function Attrs: nounwind uwtable
define dso_local i32 @pbkdf1_test() #0 {
  %1 = alloca i32, align 4
  %2 = alloca [9 x i8], align 1
  %3 = alloca [8 x i8], align 1
  %4 = alloca i32, align 4
  %5 = alloca i32, align 4
  %6 = alloca [16 x i8], align 16
  %7 = alloca [16 x i8], align 16
  %8 = alloca i32, align 4
  %9 = alloca i32, align 4
  call void @llvm.lifetime.start.p0(i64 9, ptr %2) #10
  call void @llvm.memcpy.p0.p0.i64(ptr align 1 %2, ptr align 1 @__const.pbkdf1_test.passwd, i64 9, i1 false)
  call void @llvm.lifetime.start.p0(i64 8, ptr %3) #10
  call void @llvm.memcpy.p0.p0.i64(ptr align 1 %3, ptr align 1 @__const.pbkdf1_test.salt, i64 8, i1 false)
  call void @llvm.lifetime.start.p0(i64 4, ptr %4) #10
  store i32 1000, ptr %4, align 4, !tbaa !14
  call void @llvm.lifetime.start.p0(i64 4, ptr %5) #10
  store i32 16, ptr %5, align 4, !tbaa !14
  call void @llvm.lifetime.start.p0(i64 16, ptr %6) #10
  call void @llvm.lifetime.start.p0(i64 16, ptr %7) #10
  call void @llvm.memcpy.p0.p0.i64(ptr align 16 %7, ptr align 16 @__const.pbkdf1_test.verify, i64 16, i1 false)
  call void @llvm.lifetime.start.p0(i64 4, ptr %8) #10
  br label %10

10:                                               ; preds = %0
  br label %11

11:                                               ; preds = %10
  br label %12

12:                                               ; preds = %11
  %13 = getelementptr inbounds [16 x i8], ptr %6, i64 0, i64 0
  %14 = load i32, ptr %5, align 4, !tbaa !14
  %15 = getelementptr inbounds [9 x i8], ptr %2, i64 0, i64 0
  %16 = getelementptr inbounds [9 x i8], ptr %2, i64 0, i64 0
  %17 = call i64 @strlen(ptr noundef %16) #11
  %18 = trunc i64 %17 to i32
  %19 = getelementptr inbounds [8 x i8], ptr %3, i64 0, i64 0
  %20 = load i32, ptr %4, align 4, !tbaa !14
  %21 = call i32 @wc_PBKDF1_ex(ptr noundef %13, i32 noundef %14, ptr noundef null, i32 noundef 0, ptr noundef %15, i32 noundef %18, ptr noundef %19, i32 noundef 8, i32 noundef %20, i32 noundef 4, ptr noundef null)
  store i32 %21, ptr %8, align 4, !tbaa !14
  %22 = load i32, ptr %8, align 4, !tbaa !14
  %23 = icmp ne i32 %22, 0
  br i1 %23, label %24, label %26

24:                                               ; preds = %12
  %25 = load i32, ptr %8, align 4, !tbaa !14
  store i32 %25, ptr %1, align 4
  store i32 1, ptr %9, align 4
  br label %33

26:                                               ; preds = %12
  %27 = getelementptr inbounds [16 x i8], ptr %6, i64 0, i64 0
  %28 = getelementptr inbounds [16 x i8], ptr %7, i64 0, i64 0
  %29 = call i32 @memcmp(ptr noundef %27, ptr noundef %28, i64 noundef 16) #11
  %30 = icmp ne i32 %29, 0
  br i1 %30, label %31, label %32

31:                                               ; preds = %26
  store i32 -27137, ptr %1, align 4
  store i32 1, ptr %9, align 4
  br label %33

32:                                               ; preds = %26
  store i32 0, ptr %1, align 4
  store i32 1, ptr %9, align 4
  br label %33

33:                                               ; preds = %32, %31, %24
  call void @llvm.lifetime.end.p0(i64 4, ptr %8) #10
  call void @llvm.lifetime.end.p0(i64 16, ptr %7) #10
  call void @llvm.lifetime.end.p0(i64 16, ptr %6) #10
  call void @llvm.lifetime.end.p0(i64 4, ptr %5) #10
  call void @llvm.lifetime.end.p0(i64 4, ptr %4) #10
  call void @llvm.lifetime.end.p0(i64 8, ptr %3) #10
  call void @llvm.lifetime.end.p0(i64 9, ptr %2) #10
  %34 = load i32, ptr %1, align 4
  ret i32 %34
}