; Function Attrs: nounwind uwtable
define dso_local i32 @pbkdf1_test() local_unnamed_addr #0 {
  %1 = alloca [9 x i8], align 1
  %2 = alloca [8 x i8], align 8
  %3 = alloca [16 x i8], align 16
  call void @llvm.lifetime.start.p0(i64 9, ptr nonnull %1) #19
  call void @llvm.memcpy.p0.p0.i64(ptr noundef nonnull align 1 dereferenceable(9) %1, ptr noundef nonnull align 1 dereferenceable(9) @__const.pbkdf1_test.passwd, i64 9, i1 false)
  call void @llvm.lifetime.start.p0(i64 8, ptr nonnull %2) #19
  store i64 489594237102217080, ptr %2, align 8
  call void @llvm.lifetime.start.p0(i64 16, ptr nonnull %3) #19
  %4 = call i64 @strlen(ptr noundef nonnull dereferenceable(1) %1) #20
  %5 = trunc i64 %4 to i32
  %6 = call i32 @wc_PBKDF1_ex(ptr noundef nonnull %3, i32 noundef 16, ptr noundef null, i32 noundef 0, ptr noundef nonnull %1, i32 noundef %5, ptr noundef nonnull %2, i32 noundef 8, i32 noundef 1000, i32 noundef 4, ptr noundef null) #19
  %.not = icmp eq i32 %6, 0
  br i1 %.not, label %7, label %8

7:                                                ; preds = %0
  %bcmp = call i32 @bcmp(ptr noundef nonnull dereferenceable(16) %3, ptr noundef nonnull dereferenceable(16) @__const.pbkdf1_test.verify, i64 16)
  %.not6 = icmp eq i32 %bcmp, 0
  %. = select i1 %.not6, i32 0, i32 -27137
  br label %8

8:                                                ; preds = %7, %0
  %.0 = phi i32 [ %6, %0 ], [ %., %7 ]
  call void @llvm.lifetime.end.p0(i64 16, ptr nonnull %3) #19
  call void @llvm.lifetime.end.p0(i64 8, ptr nonnull %2) #19
  call void @llvm.lifetime.end.p0(i64 9, ptr nonnull %1) #19
  ret i32 %.0
}